target datalayout = "e-m:e-p270:32:32-p271:32:32-p272:64:64-i64:64-i128:128-f80:128-n8:16:32:64-S128"
target triple = "x86_64-pc-linux-gnu"

@filename = internal global ptr @.str.1, align 8
@needs_unlink = internal global i32 0, align 4
@.str.50 = private unnamed_addr constant [2 x i8] c"\0A\00", align 1

; Function Attrs: nounwind uwtable
define internal void @signal_cleanup(i32 noundef %0) #0 {
  %2 = alloca i32, align 4
  %3 = alloca i32, align 4
  store i32 %0, ptr %2, align 4
  call void @llvm.lifetime.start.p0(i64 4, ptr %3) #9
  %4 = load i32, ptr @needs_unlink, align 4
  %5 = icmp ne i32 %4, 0
  br i1 %5, label %6, label %9

6:                                                ; preds = %1
  %7 = load ptr, ptr @filename, align 8
  %8 = call i32 @unlink(ptr noundef %7) #9
  br label %9

9:                                                ; preds = %6, %1
  %10 = call i64 @write(i32 noundef 1, ptr noundef @.str.50, i64 noundef 1)
  %11 = trunc i64 %10 to i32
  store i32 %11, ptr %3, align 4
  call void @_exit(i32 noundef 1) #13
  unreachable
}