; Function Attrs: noreturn nounwind uwtable
define internal void @signal_cleanup(i32 %0) #2 {
  %.b = load i1, ptr @needs_unlink, align 4
  br i1 %.b, label %2, label %5

2:                                                ; preds = %1
  %3 = load ptr, ptr @filename, align 8
  %4 = tail call i32 @unlink(ptr noundef %3) #14
  br label %5

5:                                                ; preds = %2, %1
  %6 = tail call i64 @write(i32 noundef 1, ptr noundef nonnull @.str.50, i64 noundef 1) #14
  tail call void @_exit(i32 noundef 1) #16
  unreachable
}